target datalayout = "e-m:e-p270:32:32-p271:32:32-p272:64:64-i64:64-i128:128-f80:128-n8:16:32:64-S128"
target triple = "x86_64-pc-linux-gnu"

%"class.cv::Mat" = type { i32, i32, i32, i32, ptr, ptr, ptr, ptr, ptr, ptr, %"struct.cv::MatSize", %"struct.cv::MatStep" }
%"struct.cv::MatSize" = type { ptr }
%"struct.cv::MatStep" = type { ptr, [2 x i64] }
%"class.cv::ximgproc::SparseMatchInterpolator" = type { %"class.cv::Algorithm" }
%"class.cv::Algorithm" = type { ptr }
%"class.cv::ximgproc::RICInterpolatorImpl" = type { %"class.cv::ximgproc::RICInterpolator", i32, %"class.std::vector.16", %"class.cv::Mat", %"class.cv::Mat", %"class.cv::Mat", %"class.cv::Mat", float, i32, float, i32, i32, float, i32, i8, i8, float, float, i8, float, float, i32 }
%"class.cv::ximgproc::RICInterpolator" = type { %"class.cv::ximgproc::SparseMatchInterpolator" }
%"class.std::vector.16" = type { %"struct.std::_Vector_base.17" }
%"struct.std::_Vector_base.17" = type { %"struct.std::_Vector_base<std::vector<cv::ximgproc::node>, std::allocator<std::vector<cv::ximgproc::node>>>::_Vector_impl" }
%"struct.std::_Vector_base<std::vector<cv::ximgproc::node>, std::allocator<std::vector<cv::ximgproc::node>>>::_Vector_impl" = type { %"struct.std::_Vector_base<std::vector<cv::ximgproc::node>, std::allocator<std::vector<cv::ximgproc::node>>>::_Vector_impl_data" }
%"struct.std::_Vector_base<std::vector<cv::ximgproc::node>, std::allocator<std::vector<cv::ximgproc::node>>>::_Vector_impl_data" = type { ptr, ptr, ptr }

; Function Attrs: mustprogress uwtable
define hidden void @_ZN2cv8ximgproc19RICInterpolatorImpl4initEv(ptr noundef nonnull align 8 dereferenceable(480) %0) #4 align 2 personality ptr @__gxx_personality_v0 {
  %2 = alloca ptr, align 8
  %3 = alloca %"class.cv::Mat", align 8
  %4 = alloca ptr, align 8
  %5 = alloca i32, align 4
  store ptr %0, ptr %2, align 8, !tbaa !217
  %6 = load ptr, ptr %2, align 8
  %7 = getelementptr inbounds nuw %"class.cv::ximgproc::RICInterpolatorImpl", ptr %6, i32 0, i32 8
  store i32 32, ptr %7, align 4, !tbaa !219
  %8 = getelementptr inbounds nuw %"class.cv::ximgproc::RICInterpolatorImpl", ptr %6, i32 0, i32 9
  store float 0x3FE6666660000000, ptr %8, align 8, !tbaa !227
  %9 = getelementptr inbounds nuw %"class.cv::ximgproc::RICInterpolatorImpl", ptr %6, i32 0, i32 7
  store float 9.990000e+02, ptr %9, align 8, !tbaa !228
  %10 = getelementptr inbounds nuw %"class.cv::ximgproc::RICInterpolatorImpl", ptr %6, i32 0, i32 10
  store i32 15, ptr %10, align 4, !tbaa !229
  %11 = getelementptr inbounds nuw %"class.cv::ximgproc::RICInterpolatorImpl", ptr %6, i32 0, i32 11
  store i32 150, ptr %11, align 8, !tbaa !230
  %12 = getelementptr inbounds nuw %"class.cv::ximgproc::RICInterpolatorImpl", ptr %6, i32 0, i32 12
  store float 1.500000e+01, ptr %12, align 4, !tbaa !231
  %13 = getelementptr inbounds nuw %"class.cv::ximgproc::RICInterpolatorImpl", ptr %6, i32 0, i32 13
  store i32 4, ptr %13, align 8, !tbaa !232
  %14 = getelementptr inbounds nuw %"class.cv::ximgproc::RICInterpolatorImpl", ptr %6, i32 0, i32 14
  store i8 1, ptr %14, align 4, !tbaa !233
  %15 = getelementptr inbounds nuw %"class.cv::ximgproc::RICInterpolatorImpl", ptr %6, i32 0, i32 15
  store i8 0, ptr %15, align 1, !tbaa !234
  %16 = getelementptr inbounds nuw %"class.cv::ximgproc::RICInterpolatorImpl", ptr %6, i32 0, i32 16
  store float 0x3F50624DE0000000, ptr %16, align 8, !tbaa !235
  %17 = getelementptr inbounds nuw %"class.cv::ximgproc::RICInterpolatorImpl", ptr %6, i32 0, i32 17
  store float 2.500000e+02, ptr %17, align 4, !tbaa !236
  %18 = getelementptr inbounds nuw %"class.cv::ximgproc::RICInterpolatorImpl", ptr %6, i32 0, i32 18
  store i8 1, ptr %18, align 8, !tbaa !237
  %19 = getelementptr inbounds nuw %"class.cv::ximgproc::RICInterpolatorImpl", ptr %6, i32 0, i32 19
  store float 5.000000e+02, ptr %19, align 4, !tbaa !238
  %20 = getelementptr inbounds nuw %"class.cv::ximgproc::RICInterpolatorImpl", ptr %6, i32 0, i32 20
  store float 1.500000e+00, ptr %20, align 8, !tbaa !239
  %21 = getelementptr inbounds nuw %"class.cv::ximgproc::RICInterpolatorImpl", ptr %6, i32 0, i32 21
  store i32 100, ptr %21, align 4, !tbaa !240
  call void @llvm.lifetime.start.p0(i64 96, ptr %3) #3
  call void @_ZN2cv3MatC1Ev(ptr noundef nonnull align 8 dereferenceable(96) %3) #3
  %22 = getelementptr inbounds nuw %"class.cv::ximgproc::RICInterpolatorImpl", ptr %6, i32 0, i32 6
  %23 = invoke noundef nonnull align 8 dereferenceable(96) ptr @_ZN2cv3MataSEOS0_(ptr noundef nonnull align 8 dereferenceable(96) %22, ptr noundef nonnull align 8 dereferenceable(96) %3)
          to label %24 unwind label %25

24:                                               ; preds = %1
  call void @_ZN2cv3MatD1Ev(ptr noundef nonnull align 8 dereferenceable(96) %3) #3
  call void @llvm.lifetime.end.p0(i64 96, ptr %3) #3
  ret void

25:                                               ; preds = %1
  %26 = landingpad { ptr, i32 }
          cleanup
  %27 = extractvalue { ptr, i32 } %26, 0
  store ptr %27, ptr %4, align 8
  %28 = extractvalue { ptr, i32 } %26, 1
  store i32 %28, ptr %5, align 4
  call void @_ZN2cv3MatD1Ev(ptr noundef nonnull align 8 dereferenceable(96) %3) #3
  call void @llvm.lifetime.end.p0(i64 96, ptr %3) #3
  br label %29

29:                                               ; preds = %25
  %30 = load ptr, ptr %4, align 8
  %31 = load i32, ptr %5, align 4
  %32 = insertvalue { ptr, i32 } poison, ptr %30, 0
  %33 = insertvalue { ptr, i32 } %32, i32 %31, 1
  resume { ptr, i32 } %33
}