; Function Attrs: mustprogress uwtable
define hidden void @_ZN2cv8ximgproc19RICInterpolatorImpl4initEv(ptr noundef nonnull align 8 dereferenceable(480) initializes((424, 454), (456, 465), (468, 480)) %0) local_unnamed_addr #3 align 2 personality ptr @__gxx_personality_v0 {
  %2 = alloca %"class.cv::Mat", align 8
  %3 = getelementptr inbounds nuw i8, ptr %0, i64 428
  store i32 32, ptr %3, align 4, !tbaa !254
  %4 = getelementptr inbounds nuw i8, ptr %0, i64 432
  store float 0x3FE6666660000000, ptr %4, align 8, !tbaa !262
  %5 = getelementptr inbounds nuw i8, ptr %0, i64 424
  store float 9.990000e+02, ptr %5, align 8, !tbaa !263
  %6 = getelementptr inbounds nuw i8, ptr %0, i64 436
  store i32 15, ptr %6, align 4, !tbaa !264
  %7 = getelementptr inbounds nuw i8, ptr %0, i64 440
  store i32 150, ptr %7, align 8, !tbaa !265
  %8 = getelementptr inbounds nuw i8, ptr %0, i64 444
  store float 1.500000e+01, ptr %8, align 4, !tbaa !266
  %9 = getelementptr inbounds nuw i8, ptr %0, i64 448
  store i32 4, ptr %9, align 8, !tbaa !267
  %10 = getelementptr inbounds nuw i8, ptr %0, i64 452
  store i8 1, ptr %10, align 4, !tbaa !268
  %11 = getelementptr inbounds nuw i8, ptr %0, i64 453
  store i8 0, ptr %11, align 1, !tbaa !269
  %12 = getelementptr inbounds nuw i8, ptr %0, i64 456
  store float 0x3F50624DE0000000, ptr %12, align 8, !tbaa !270
  %13 = getelementptr inbounds nuw i8, ptr %0, i64 460
  store float 2.500000e+02, ptr %13, align 4, !tbaa !271
  %14 = getelementptr inbounds nuw i8, ptr %0, i64 464
  store i8 1, ptr %14, align 8, !tbaa !272
  %15 = getelementptr inbounds nuw i8, ptr %0, i64 468
  store float 5.000000e+02, ptr %15, align 4, !tbaa !273
  %16 = getelementptr inbounds nuw i8, ptr %0, i64 472
  store float 1.500000e+00, ptr %16, align 8, !tbaa !274
  %17 = getelementptr inbounds nuw i8, ptr %0, i64 476
  store i32 100, ptr %17, align 4, !tbaa !275
  call void @llvm.lifetime.start.p0(i64 96, ptr nonnull %2) #31
  call void @_ZN2cv3MatC1Ev(ptr noundef nonnull align 8 dereferenceable(96) %2) #31
  %18 = getelementptr inbounds nuw i8, ptr %0, i64 328
  %19 = invoke noundef nonnull align 8 dereferenceable(96) ptr @_ZN2cv3MataSEOS0_(ptr noundef nonnull align 8 dereferenceable(96) %18, ptr noundef nonnull align 8 dereferenceable(96) %2)
          to label %20 unwind label %21

20:                                               ; preds = %1
  call void @_ZN2cv3MatD1Ev(ptr noundef nonnull align 8 dereferenceable(96) %2) #31
  call void @llvm.lifetime.end.p0(i64 96, ptr nonnull %2) #31
  ret void

21:                                               ; preds = %1
  %22 = landingpad { ptr, i32 }
          cleanup
  call void @_ZN2cv3MatD1Ev(ptr noundef nonnull align 8 dereferenceable(96) %2) #31
  call void @llvm.lifetime.end.p0(i64 96, ptr nonnull %2) #31
  resume { ptr, i32 } %22
}